; Function Attrs: mustprogress uwtable
define hidden noundef nonnull align 8 dereferenceable(16) ptr @_ZN2dd3pddaSEj(ptr noundef nonnull returned align 8 captures(ret: address, provenance) dereferenceable(16) %0, i32 noundef %1) local_unnamed_addr #3 align 2 personality ptr @__gxx_personality_v0 {
  %3 = alloca %"class.dd::pdd", align 8
  %4 = getelementptr inbounds nuw i8, ptr %0, i64 8
  %5 = load ptr, ptr %4, align 8, !tbaa !122
  %6 = load i32, ptr %0, align 8, !tbaa !119
  %7 = load ptr, ptr %5, align 8, !tbaa !91
  %8 = zext i32 %6 to i64
  %9 = getelementptr inbounds nuw %"struct.dd::pdd_manager::node", ptr %7, i64 %8
  %10 = load i32, ptr %9, align 4
  %11 = and i32 %10, 1023
  %.not.i = icmp eq i32 %11, 1023
  br i1 %.not.i, label %_ZN2dd11pdd_manager7dec_refEj.exit, label %12

12:                                               ; preds = %2
  %13 = add i32 %10, 1023
  %14 = and i32 %13, 1023
  %15 = and i32 %10, -1024
  %16 = or disjoint i32 %14, %15
  store i32 %16, ptr %9, align 4
  %.pre = load ptr, ptr %4, align 8, !tbaa !122
  br label %_ZN2dd11pdd_manager7dec_refEj.exit

_ZN2dd11pdd_manager7dec_refEj.exit:               ; preds = %2, %12
  %17 = phi ptr [ %5, %2 ], [ %.pre, %12 ]
  call void @llvm.lifetime.start.p0(i64 16, ptr nonnull %3) #29
  call void @_ZN2dd11pdd_manager6mk_valEj(ptr dead_on_unwind nonnull writable sret(%"class.dd::pdd") align 8 %3, ptr noundef nonnull align 8 dereferenceable(952) %17, i32 noundef %1)
  %18 = load i32, ptr %3, align 8, !tbaa !119
  store i32 %18, ptr %0, align 8, !tbaa !119
  %19 = getelementptr inbounds nuw i8, ptr %3, i64 8
  %20 = load ptr, ptr %19, align 8, !tbaa !122
  %21 = load ptr, ptr %20, align 8, !tbaa !91
  %22 = zext i32 %18 to i64
  %23 = getelementptr inbounds nuw %"struct.dd::pdd_manager::node", ptr %21, i64 %22
  %24 = load i32, ptr %23, align 4
  %25 = and i32 %24, 1023
  %.not.i.i = icmp eq i32 %25, 1023
  br i1 %.not.i.i, label %_ZN2dd3pddD2Ev.exit, label %26

26:                                               ; preds = %_ZN2dd11pdd_manager7dec_refEj.exit
  %27 = add i32 %24, 1023
  %28 = and i32 %27, 1023
  %29 = and i32 %24, -1024
  %30 = or disjoint i32 %28, %29
  store i32 %30, ptr %23, align 4
  %.pre2 = load i32, ptr %0, align 8, !tbaa !119
  %.pre3 = zext i32 %.pre2 to i64
  br label %_ZN2dd3pddD2Ev.exit

_ZN2dd3pddD2Ev.exit:                              ; preds = %_ZN2dd11pdd_manager7dec_refEj.exit, %26
  %.pre-phi = phi i64 [ %22, %_ZN2dd11pdd_manager7dec_refEj.exit ], [ %.pre3, %26 ]
  call void @llvm.lifetime.end.p0(i64 16, ptr nonnull %3) #29
  %31 = load ptr, ptr %4, align 8, !tbaa !122
  %32 = load ptr, ptr %31, align 8, !tbaa !91
  %33 = getelementptr inbounds nuw %"struct.dd::pdd_manager::node", ptr %32, i64 %.pre-phi
  %34 = load i32, ptr %33, align 4
  %35 = and i32 %34, 1023
  %.not.i1 = icmp eq i32 %35, 1023
  br i1 %.not.i1, label %_ZN2dd11pdd_manager7inc_refEj.exit, label %36

36:                                               ; preds = %_ZN2dd3pddD2Ev.exit
  %37 = add i32 %34, 1
  %38 = and i32 %37, 1023
  %39 = and i32 %34, -1024
  %40 = or disjoint i32 %38, %39
  store i32 %40, ptr %33, align 4
  br label %_ZN2dd11pdd_manager7inc_refEj.exit

_ZN2dd11pdd_manager7inc_refEj.exit:               ; preds = %_ZN2dd3pddD2Ev.exit, %36
  ret ptr %0
}